; ModuleID = '29/879.c'
source_filename = "29/879.c"
target datalayout = "e-m:e-p270:32:32-p271:32:32-p272:64:64-i64:64-f80:128-n8:16:32:64-S128"
target triple = "x86_64-pc-linux-gnu"

@.str = private unnamed_addr constant [3 x i8] c"%d\00", align 1
@t = common dso_local global [10000 x i32] zeroinitializer, align 16
@a = common dso_local global [10000 x i32] zeroinitializer, align 16
@b = common dso_local global [10000 x i32] zeroinitializer, align 16
@c = common dso_local global [10000 x double] zeroinitializer, align 16
@p = common dso_local global [10000 x double] zeroinitializer, align 16
@.str.1 = private unnamed_addr constant [7 x i8] c"%.3lf\0A\00", align 1

; Function Attrs: noinline nounwind uwtable
define dso_local i32 @main() #0 {
  %1 = alloca i32, align 4
  %2 = alloca i32, align 4
  %3 = alloca i32, align 4
  %4 = alloca i32, align 4
  %5 = alloca i32, align 4
  store i32 0, i32* %1, align 4
  store i32 0, i32* %5, align 4
  %6 = call i32 (i8*, ...) @__isoc99_scanf(i8* getelementptr inbounds ([3 x i8], [3 x i8]* @.str, i64 0, i64 0), i32* %2)
  store i32 0, i32* %3, align 4
  br label %7

7:                                                ; preds = %16, %0
  %8 = load i32, i32* %3, align 4
  %9 = load i32, i32* %2, align 4
  %10 = icmp slt i32 %8, %9
  br i1 %10, label %11, label %19

11:                                               ; preds = %7
  %12 = load i32, i32* %3, align 4
  %13 = sext i32 %12 to i64
  %14 = getelementptr inbounds [10000 x i32], [10000 x i32]* @t, i64 0, i64 %13
  %15 = call i32 (i8*, ...) @__isoc99_scanf(i8* getelementptr inbounds ([3 x i8], [3 x i8]* @.str, i64 0, i64 0), i32* %14)
  br label %16

16:                                               ; preds = %11
  %17 = load i32, i32* %3, align 4
  %18 = add nsw i32 %17, 1
  store i32 %18, i32* %3, align 4
  br label %7

19:                                               ; preds = %7
  store i32 0, i32* %3, align 4
  br label %20

20:                                               ; preds = %37, %19
  %21 = load i32, i32* %3, align 4
  %22 = load i32, i32* %2, align 4
  %23 = icmp slt i32 %21, %22
  br i1 %23, label %24, label %40

24:                                               ; preds = %20
  %25 = load i32, i32* %3, align 4
  %26 = sext i32 %25 to i64
  %27 = getelementptr inbounds [10000 x i32], [10000 x i32]* @t, i64 0, i64 %26
  %28 = load i32, i32* %27, align 4
  %29 = load i32, i32* %5, align 4
  %30 = icmp sgt i32 %28, %29
  br i1 %30, label %31, label %36

31:                                               ; preds = %24
  %32 = load i32, i32* %3, align 4
  %33 = sext i32 %32 to i64
  %34 = getelementptr inbounds [10000 x i32], [10000 x i32]* @t, i64 0, i64 %33
  %35 = load i32, i32* %34, align 4
  store i32 %35, i32* %5, align 4
  br label %36

36:                                               ; preds = %31, %24
  br label %37

37:                                               ; preds = %36
  %38 = load i32, i32* %3, align 4
  %39 = add nsw i32 %38, 1
  store i32 %39, i32* %3, align 4
  br label %20

40:                                               ; preds = %20
  store i32 2, i32* getelementptr inbounds ([10000 x i32], [10000 x i32]* @a, i64 0, i64 0), align 16
  store i32 3, i32* getelementptr inbounds ([10000 x i32], [10000 x i32]* @a, i64 0, i64 1), align 4
  store i32 1, i32* getelementptr inbounds ([10000 x i32], [10000 x i32]* @b, i64 0, i64 0), align 16
  store i32 2, i32* getelementptr inbounds ([10000 x i32], [10000 x i32]* @b, i64 0, i64 1), align 4
  %41 = load i32, i32* getelementptr inbounds ([10000 x i32], [10000 x i32]* @a, i64 0, i64 0), align 16
  %42 = sitofp i32 %41 to double
  %43 = load i32, i32* getelementptr inbounds ([10000 x i32], [10000 x i32]* @b, i64 0, i64 0), align 16
  %44 = sitofp i32 %43 to double
  %45 = fdiv double %42, %44
  store double %45, double* getelementptr inbounds ([10000 x double], [10000 x double]* @c, i64 0, i64 0), align 16
  %46 = load i32, i32* getelementptr inbounds ([10000 x i32], [10000 x i32]* @a, i64 0, i64 1), align 4
  %47 = sitofp i32 %46 to double
  %48 = load i32, i32* getelementptr inbounds ([10000 x i32], [10000 x i32]* @b, i64 0, i64 1), align 4
  %49 = sitofp i32 %48 to double
  %50 = fdiv double %47, %49
  store double %50, double* getelementptr inbounds ([10000 x double], [10000 x double]* @c, i64 0, i64 1), align 8
  store i32 2, i32* %3, align 4
  br label %51

51:                                               ; preds = %98, %40
  %52 = load i32, i32* %3, align 4
  %53 = load i32, i32* %5, align 4
  %54 = icmp sle i32 %52, %53
  br i1 %54, label %55, label %101

55:                                               ; preds = %51
  %56 = load i32, i32* %3, align 4
  %57 = sub nsw i32 %56, 1
  %58 = sext i32 %57 to i64
  %59 = getelementptr inbounds [10000 x i32], [10000 x i32]* @a, i64 0, i64 %58
  %60 = load i32, i32* %59, align 4
  %61 = load i32, i32* %3, align 4
  %62 = sub nsw i32 %61, 2
  %63 = sext i32 %62 to i64
  %64 = getelementptr inbounds [10000 x i32], [10000 x i32]* @a, i64 0, i64 %63
  %65 = load i32, i32* %64, align 4
  %66 = add nsw i32 %60, %65
  %67 = load i32, i32* %3, align 4
  %68 = sext i32 %67 to i64
  %69 = getelementptr inbounds [10000 x i32], [10000 x i32]* @a, i64 0, i64 %68
  store i32 %66, i32* %69, align 4
  %70 = load i32, i32* %3, align 4
  %71 = sub nsw i32 %70, 1
  %72 = sext i32 %71 to i64
  %73 = getelementptr inbounds [10000 x i32], [10000 x i32]* @b, i64 0, i64 %72
  %74 = load i32, i32* %73, align 4
  %75 = load i32, i32* %3, align 4
  %76 = sub nsw i32 %75, 2
  %77 = sext i32 %76 to i64
  %78 = getelementptr inbounds [10000 x i32], [10000 x i32]* @b, i64 0, i64 %77
  %79 = load i32, i32* %78, align 4
  %80 = add nsw i32 %74, %79
  %81 = load i32, i32* %3, align 4
  %82 = sext i32 %81 to i64
  %83 = getelementptr inbounds [10000 x i32], [10000 x i32]* @b, i64 0, i64 %82
  store i32 %80, i32* %83, align 4
  %84 = load i32, i32* %3, align 4
  %85 = sext i32 %84 to i64
  %86 = getelementptr inbounds [10000 x i32], [10000 x i32]* @a, i64 0, i64 %85
  %87 = load i32, i32* %86, align 4
  %88 = sitofp i32 %87 to double
  %89 = load i32, i32* %3, align 4
  %90 = sext i32 %89 to i64
  %91 = getelementptr inbounds [10000 x i32], [10000 x i32]* @b, i64 0, i64 %90
  %92 = load i32, i32* %91, align 4
  %93 = sitofp i32 %92 to double
  %94 = fdiv double %88, %93
  %95 = load i32, i32* %3, align 4
  %96 = sext i32 %95 to i64
  %97 = getelementptr inbounds [10000 x double], [10000 x double]* @c, i64 0, i64 %96
  store double %94, double* %97, align 8
  br label %98

98:                                               ; preds = %55
  %99 = load i32, i32* %3, align 4
  %100 = add nsw i32 %99, 1
  store i32 %100, i32* %3, align 4
  br label %51

101:                                              ; preds = %51
  store i32 0, i32* %3, align 4
  br label %102

102:                                              ; preds = %136, %101
  %103 = load i32, i32* %3, align 4
  %104 = load i32, i32* %2, align 4
  %105 = icmp slt i32 %103, %104
  br i1 %105, label %106, label %139

106:                                              ; preds = %102
  %107 = load i32, i32* %3, align 4
  %108 = sext i32 %107 to i64
  %109 = getelementptr inbounds [10000 x double], [10000 x double]* @p, i64 0, i64 %108
  store double 0.000000e+00, double* %109, align 8
  store i32 0, i32* %4, align 4
  br label %110

110:                                              ; preds = %127, %106
  %111 = load i32, i32* %4, align 4
  %112 = load i32, i32* %3, align 4
  %113 = sext i32 %112 to i64
  %114 = getelementptr inbounds [10000 x i32], [10000 x i32]* @t, i64 0, i64 %113
  %115 = load i32, i32* %114, align 4
  %116 = icmp slt i32 %111, %115
  br i1 %116, label %117, label %130

117:                                              ; preds = %110
  %118 = load i32, i32* %4, align 4
  %119 = sext i32 %118 to i64
  %120 = getelementptr inbounds [10000 x double], [10000 x double]* @c, i64 0, i64 %119
  %121 = load double, double* %120, align 8
  %122 = load i32, i32* %3, align 4
  %123 = sext i32 %122 to i64
  %124 = getelementptr inbounds [10000 x double], [10000 x double]* @p, i64 0, i64 %123
  %125 = load double, double* %124, align 8
  %126 = fadd double %125, %121
  store double %126, double* %124, align 8
  br label %127

127:                                              ; preds = %117
  %128 = load i32, i32* %4, align 4
  %129 = add nsw i32 %128, 1
  store i32 %129, i32* %4, align 4
  br label %110

130:                                              ; preds = %110
  %131 = load i32, i32* %3, align 4
  %132 = sext i32 %131 to i64
  %133 = getelementptr inbounds [10000 x double], [10000 x double]* @p, i64 0, i64 %132
  %134 = load double, double* %133, align 8
  %135 = call i32 (i8*, ...) @printf(i8* getelementptr inbounds ([7 x i8], [7 x i8]* @.str.1, i64 0, i64 0), double %134)
  br label %136

136:                                              ; preds = %130
  %137 = load i32, i32* %3, align 4
  %138 = add nsw i32 %137, 1
  store i32 %138, i32* %3, align 4
  br label %102

139:                                              ; preds = %102
  ret i32 0
}

declare dso_local i32 @__isoc99_scanf(i8*, ...) #1

declare dso_local i32 @printf(i8*, ...) #1


!llvm.module.flags = !{!0}
!llvm.ident = !{!1}

!0 = !{i32 1, !"wchar_size", i32 4}
!1 = !{!"clang version 10.0.0-4ubuntu1 "}
